target datalayout = "e-m:e-p270:32:32-p271:32:32-p272:64:64-i64:64-i128:128-f80:128-n8:16:32:64-S128"
target triple = "x86_64-pc-linux-gnu"

%struct.lexbor_str_t = type { ptr, i64 }

; Function Attrs: nounwind uwtable
define hidden i64 @lexbor_str_crop_whitespace_from_begin(ptr noundef %0) #0 {
  %2 = alloca ptr, align 8
  %3 = alloca i64, align 8
  %4 = alloca ptr, align 8
  store ptr %0, ptr %2, align 8
  %5 = load ptr, ptr %2, align 8
  %6 = getelementptr inbounds %struct.lexbor_str_t, ptr %5, i32 0, i32 0
  %7 = load ptr, ptr %6, align 8
  store ptr %7, ptr %4, align 8
  store i64 0, ptr %3, align 8
  br label %8

8:                                                ; preds = %51, %1
  %9 = load i64, ptr %3, align 8
  %10 = load ptr, ptr %2, align 8
  %11 = getelementptr inbounds %struct.lexbor_str_t, ptr %10, i32 0, i32 1
  %12 = load i64, ptr %11, align 8
  %13 = icmp ult i64 %9, %12
  br i1 %13, label %14, label %54

14:                                               ; preds = %8
  %15 = load ptr, ptr %4, align 8
  %16 = load i64, ptr %3, align 8
  %17 = getelementptr inbounds i8, ptr %15, i64 %16
  %18 = load i8, ptr %17, align 1
  %19 = zext i8 %18 to i32
  %20 = icmp ne i32 %19, 32
  br i1 %20, label %21, label %50

21:                                               ; preds = %14
  %22 = load ptr, ptr %4, align 8
  %23 = load i64, ptr %3, align 8
  %24 = getelementptr inbounds i8, ptr %22, i64 %23
  %25 = load i8, ptr %24, align 1
  %26 = zext i8 %25 to i32
  %27 = icmp ne i32 %26, 9
  br i1 %27, label %28, label %50

28:                                               ; preds = %21
  %29 = load ptr, ptr %4, align 8
  %30 = load i64, ptr %3, align 8
  %31 = getelementptr inbounds i8, ptr %29, i64 %30
  %32 = load i8, ptr %31, align 1
  %33 = zext i8 %32 to i32
  %34 = icmp ne i32 %33, 10
  br i1 %34, label %35, label %50

35:                                               ; preds = %28
  %36 = load ptr, ptr %4, align 8
  %37 = load i64, ptr %3, align 8
  %38 = getelementptr inbounds i8, ptr %36, i64 %37
  %39 = load i8, ptr %38, align 1
  %40 = zext i8 %39 to i32
  %41 = icmp ne i32 %40, 12
  br i1 %41, label %42, label %50

42:                                               ; preds = %35
  %43 = load ptr, ptr %4, align 8
  %44 = load i64, ptr %3, align 8
  %45 = getelementptr inbounds i8, ptr %43, i64 %44
  %46 = load i8, ptr %45, align 1
  %47 = zext i8 %46 to i32
  %48 = icmp ne i32 %47, 13
  br i1 %48, label %49, label %50

49:                                               ; preds = %42
  br label %54

50:                                               ; preds = %42, %35, %28, %21, %14
  br label %51

51:                                               ; preds = %50
  %52 = load i64, ptr %3, align 8
  %53 = add i64 %52, 1
  store i64 %53, ptr %3, align 8
  br label %8

54:                                               ; preds = %49, %8
  %55 = load i64, ptr %3, align 8
  %56 = icmp ne i64 %55, 0
  br i1 %56, label %57, label %77

57:                                               ; preds = %54
  %58 = load i64, ptr %3, align 8
  %59 = load ptr, ptr %2, align 8
  %60 = getelementptr inbounds %struct.lexbor_str_t, ptr %59, i32 0, i32 1
  %61 = load i64, ptr %60, align 8
  %62 = icmp ne i64 %58, %61
  br i1 %62, label %63, label %77

63:                                               ; preds = %57
  %64 = load ptr, ptr %2, align 8
  %65 = getelementptr inbounds %struct.lexbor_str_t, ptr %64, i32 0, i32 0
  %66 = load ptr, ptr %65, align 8
  %67 = load ptr, ptr %2, align 8
  %68 = getelementptr inbounds %struct.lexbor_str_t, ptr %67, i32 0, i32 0
  %69 = load ptr, ptr %68, align 8
  %70 = load i64, ptr %3, align 8
  %71 = getelementptr inbounds i8, ptr %69, i64 %70
  %72 = load ptr, ptr %2, align 8
  %73 = getelementptr inbounds %struct.lexbor_str_t, ptr %72, i32 0, i32 1
  %74 = load i64, ptr %73, align 8
  %75 = load i64, ptr %3, align 8
  %76 = sub i64 %74, %75
  call void @llvm.memmove.p0.p0.i64(ptr align 1 %66, ptr align 1 %71, i64 %76, i1 false)
  br label %77

77:                                               ; preds = %63, %57, %54
  %78 = load i64, ptr %3, align 8
  %79 = load ptr, ptr %2, align 8
  %80 = getelementptr inbounds %struct.lexbor_str_t, ptr %79, i32 0, i32 1
  %81 = load i64, ptr %80, align 8
  %82 = sub i64 %81, %78
  store i64 %82, ptr %80, align 8
  %83 = load i64, ptr %3, align 8
  ret i64 %83
}