; Function Attrs: nofree norecurse nosync nounwind memory(readwrite, inaccessiblemem: none) uwtable
define hidden i64 @lexbor_str_crop_whitespace_from_begin(ptr nocapture noundef %0) local_unnamed_addr #6 {
  %2 = load ptr, ptr %0, align 8
  %3 = getelementptr inbounds i8, ptr %0, i64 8
  %4 = load i64, ptr %3, align 8
  %.not = icmp eq i64 %4, 0
  br i1 %.not, label %._crit_edge.thread, label %.lr.ph

.lr.ph:                                           ; preds = %1, %7
  %.033 = phi i64 [ %8, %7 ], [ 0, %1 ]
  %5 = getelementptr inbounds i8, ptr %2, i64 %.033
  %6 = load i8, ptr %5, align 1
  switch i8 %6, label %._crit_edge [
    i8 32, label %7
    i8 9, label %7
    i8 10, label %7
    i8 12, label %7
    i8 13, label %7
  ]

7:                                                ; preds = %.lr.ph, %.lr.ph, %.lr.ph, %.lr.ph, %.lr.ph
  %8 = add nuw i64 %.033, 1
  %exitcond.not = icmp eq i64 %8, %4
  br i1 %exitcond.not, label %._crit_edge.thread, label %.lr.ph

._crit_edge:                                      ; preds = %.lr.ph
  %.not30 = icmp eq i64 %.033, 0
  %.not31 = icmp eq i64 %.033, %4
  %or.cond = or i1 %.not30, %.not31
  br i1 %or.cond, label %._crit_edge.thread, label %9

9:                                                ; preds = %._crit_edge
  %10 = getelementptr inbounds i8, ptr %2, i64 %.033
  %11 = sub i64 %4, %.033
  tail call void @llvm.memmove.p0.p0.i64(ptr nonnull align 1 %2, ptr nonnull align 1 %10, i64 %11, i1 false)
  %.pre = load i64, ptr %3, align 8
  br label %._crit_edge.thread

._crit_edge.thread:                               ; preds = %7, %1, %9, %._crit_edge
  %.0.lcssa42 = phi i64 [ %.033, %9 ], [ %.033, %._crit_edge ], [ 0, %1 ], [ %4, %7 ]
  %12 = phi i64 [ %.pre, %9 ], [ %4, %._crit_edge ], [ 0, %1 ], [ %4, %7 ]
  %13 = sub i64 %12, %.0.lcssa42
  store i64 %13, ptr %3, align 8
  ret i64 %.0.lcssa42
}